target datalayout = "e-m:e-p270:32:32-p271:32:32-p272:64:64-i64:64-i128:128-f80:128-n8:16:32:64-S128"
target triple = "x86_64-pc-linux-gnu"

%struct.ossl_quic_tx_packetiser_st = type { %struct.ossl_quic_tx_packetiser_args_st, ptr, i64, ptr, ptr, %struct.quic_fifd_st, [3 x i64], %struct.OSSL_TIME, i64, i16, %struct.ossl_quic_frame_conn_close_st, i64, i64, [4 x %struct.txp_el], ptr, ptr, ptr, ptr, ptr }
%struct.ossl_quic_tx_packetiser_args_st = type { %struct.quic_conn_id_st, %struct.quic_conn_id_st, %union.bio_addr_st, i32, ptr, ptr, ptr, ptr, ptr, ptr, ptr, ptr, ptr, ptr, ptr, ptr, ptr, ptr, ptr, i32, [3 x ptr] }
%struct.quic_conn_id_st = type { i8, [20 x i8] }
%union.bio_addr_st = type { %struct.sockaddr_in6, [84 x i8] }
%struct.sockaddr_in6 = type { i16, i16, i32, %struct.in6_addr, i32 }
%struct.in6_addr = type { %union.anon }
%union.anon = type { [4 x i32] }
%struct.quic_fifd_st = type { ptr, ptr, ptr, ptr, ptr, ptr, ptr, ptr, ptr, ptr, ptr, ptr, ptr }
%struct.OSSL_TIME = type { i64 }
%struct.ossl_quic_frame_conn_close_st = type { i8, i64, i64, ptr, i64 }
%struct.txp_el = type { ptr, i64, ptr, i64 }

; Function Attrs: nounwind uwtable
define void @ossl_quic_tx_packetiser_add_unvalidated_credit(ptr noundef %0, i64 noundef %1) #0 {
  %3 = alloca ptr, align 8
  %4 = alloca i64, align 8
  store ptr %0, ptr %3, align 8, !tbaa !3
  store i64 %1, ptr %4, align 8, !tbaa !28
  %5 = load ptr, ptr %3, align 8, !tbaa !3
  %6 = getelementptr inbounds nuw %struct.ossl_quic_tx_packetiser_st, ptr %5, i32 0, i32 8
  %7 = load i64, ptr %6, align 8, !tbaa !8
  %8 = icmp ne i64 %7, -1
  br i1 %8, label %9, label %28

9:                                                ; preds = %2
  %10 = load ptr, ptr %3, align 8, !tbaa !3
  %11 = getelementptr inbounds nuw %struct.ossl_quic_tx_packetiser_st, ptr %10, i32 0, i32 8
  %12 = load i64, ptr %11, align 8, !tbaa !8
  %13 = sub i64 -1, %12
  %14 = load i64, ptr %4, align 8, !tbaa !28
  %15 = mul i64 %14, 3
  %16 = icmp ugt i64 %13, %15
  br i1 %16, label %17, label %24

17:                                               ; preds = %9
  %18 = load i64, ptr %4, align 8, !tbaa !28
  %19 = mul i64 %18, 3
  %20 = load ptr, ptr %3, align 8, !tbaa !3
  %21 = getelementptr inbounds nuw %struct.ossl_quic_tx_packetiser_st, ptr %20, i32 0, i32 8
  %22 = load i64, ptr %21, align 8, !tbaa !8
  %23 = add i64 %22, %19
  store i64 %23, ptr %21, align 8, !tbaa !8
  br label %27

24:                                               ; preds = %9
  %25 = load ptr, ptr %3, align 8, !tbaa !3
  %26 = getelementptr inbounds nuw %struct.ossl_quic_tx_packetiser_st, ptr %25, i32 0, i32 8
  store i64 -2, ptr %26, align 8, !tbaa !8
  br label %27

27:                                               ; preds = %24, %17
  br label %28

28:                                               ; preds = %27, %2
  ret void
}