; Function Attrs: mustprogress nofree norecurse nosync nounwind willreturn memory(argmem: readwrite) uwtable
define void @ossl_quic_tx_packetiser_add_unvalidated_credit(ptr noundef captures(none) %0, i64 noundef %1) local_unnamed_addr #1 {
  %3 = getelementptr inbounds nuw i8, ptr %0, i64 480
  %4 = load i64, ptr %3, align 8, !tbaa !3
  %.not = icmp eq i64 %4, -1
  br i1 %.not, label %9, label %.sink.split

.sink.split:                                      ; preds = %2
  %5 = xor i64 %4, -1
  %6 = mul i64 %1, 3
  %7 = icmp ult i64 %6, %5
  %8 = add i64 %4, %6
  %.sink = select i1 %7, i64 %8, i64 -2
  store i64 %.sink, ptr %3, align 8, !tbaa !3
  br label %9

9:                                                ; preds = %.sink.split, %2
  ret void
}